target datalayout = "e-m:e-p270:32:32-p271:32:32-p272:64:64-i64:64-i128:128-f80:128-n8:16:32:64-S128"
target triple = "x86_64-pc-linux-gnu"

%"class.tcb::span" = type { %"struct.tcb::detail::span_storage" }
%"struct.tcb::detail::span_storage" = type { ptr, i64 }
%"class.LIEF::MachO::LoadCommand" = type { %"class.LIEF::Object", %"class.std::vector.43", i64, i32, i64 }
%"class.LIEF::Object" = type { ptr }
%"class.std::vector.43" = type { %"struct.std::_Vector_base.44" }
%"struct.std::_Vector_base.44" = type { %"struct.std::_Vector_base<unsigned char, std::allocator<unsigned char>>::_Vector_impl" }
%"struct.std::_Vector_base<unsigned char, std::allocator<unsigned char>>::_Vector_impl" = type { %"struct.std::_Vector_base<unsigned char, std::allocator<unsigned char>>::_Vector_impl_data" }
%"struct.std::_Vector_base<unsigned char, std::allocator<unsigned char>>::_Vector_impl_data" = type { ptr, ptr, ptr }
%"class.tcb::span.48" = type { %"struct.tcb::detail::span_storage.49" }
%"struct.tcb::detail::span_storage.49" = type { ptr, i64 }
%"class.LIEF::MachO::LinkerOptHint" = type { %"class.LIEF::MachO::LoadCommand", i32, i32, %"class.tcb::span.48" }

; Function Attrs: mustprogress nounwind uwtable
define linkonce_odr hidden void @_ZN3tcb6detail12span_storageIKhLm18446744073709551615EEC2EPS2_m(ptr noundef nonnull align 8 dereferenceable(16) %0, ptr noundef %1, i64 noundef %2) unnamed_addr #0 comdat align 2 {
  %4 = alloca ptr, align 8
  %5 = alloca ptr, align 8
  %6 = alloca i64, align 8
  store ptr %0, ptr %4, align 8
  store ptr %1, ptr %5, align 8
  store i64 %2, ptr %6, align 8
  %7 = load ptr, ptr %4, align 8
  %8 = getelementptr inbounds %"struct.tcb::detail::span_storage", ptr %7, i32 0, i32 0
  %9 = load ptr, ptr %5, align 8
  store ptr %9, ptr %8, align 8
  %10 = getelementptr inbounds %"struct.tcb::detail::span_storage", ptr %7, i32 0, i32 1
  %11 = load i64, ptr %6, align 8
  store i64 %11, ptr %10, align 8
  ret void
}

; Function Attrs: mustprogress nounwind uwtable
define linkonce_odr hidden noundef i64 @_ZNK3tcb4spanIhLm18446744073709551615EE4sizeEv(ptr noundef nonnull align 8 dereferenceable(16) %0) #0 comdat align 2 {
  %2 = alloca ptr, align 8
  store ptr %0, ptr %2, align 8
  %3 = load ptr, ptr %2, align 8
  %4 = getelementptr inbounds %"class.tcb::span.48", ptr %3, i32 0, i32 0
  %5 = getelementptr inbounds %"struct.tcb::detail::span_storage.49", ptr %4, i32 0, i32 1
  %6 = load i64, ptr %5, align 8
  ret i64 %6
}

; Function Attrs: mustprogress nounwind uwtable
define linkonce_odr hidden noundef ptr @_ZNK3tcb4spanIhLm18446744073709551615EE4dataEv(ptr noundef nonnull align 8 dereferenceable(16) %0) #0 comdat align 2 {
  %2 = alloca ptr, align 8
  store ptr %0, ptr %2, align 8
  %3 = load ptr, ptr %2, align 8
  %4 = getelementptr inbounds %"class.tcb::span.48", ptr %3, i32 0, i32 0
  %5 = getelementptr inbounds %"struct.tcb::detail::span_storage.49", ptr %4, i32 0, i32 0
  %6 = load ptr, ptr %5, align 8
  ret ptr %6
}

; Function Attrs: mustprogress nounwind uwtable
define linkonce_odr hidden void @_ZN3tcb4spanIKhLm18446744073709551615EEC2IhLm18446744073709551615ETnNSt9enable_ifIXaaooooeqLm18446744073709551615EL_ZNS_14dynamic_extentEEeqT0_L_ZNS_14dynamic_extentEEeqLm18446744073709551615ET0_sr3std14is_convertibleIPA_T_PA_S1_EE5valueEiE4typeELi0EEERKNS0_IS5_XT0_EEE(ptr noundef nonnull align 8 dereferenceable(16) %0, ptr noundef nonnull align 8 dereferenceable(16) %1) unnamed_addr #0 comdat align 2 {
  %3 = alloca ptr, align 8
  %4 = alloca ptr, align 8
  store ptr %0, ptr %3, align 8
  store ptr %1, ptr %4, align 8
  %5 = load ptr, ptr %3, align 8
  %6 = getelementptr inbounds %"class.tcb::span", ptr %5, i32 0, i32 0
  %7 = load ptr, ptr %4, align 8
  %8 = call noundef ptr @_ZNK3tcb4spanIhLm18446744073709551615EE4dataEv(ptr noundef nonnull align 8 dereferenceable(16) %7) #8
  %9 = load ptr, ptr %4, align 8
  %10 = call noundef i64 @_ZNK3tcb4spanIhLm18446744073709551615EE4sizeEv(ptr noundef nonnull align 8 dereferenceable(16) %9) #8
  call void @_ZN3tcb6detail12span_storageIKhLm18446744073709551615EEC2EPS2_m(ptr noundef nonnull align 8 dereferenceable(16) %6, ptr noundef %8, i64 noundef %10) #8
  ret void
}

; Function Attrs: mustprogress nounwind uwtable
define linkonce_odr hidden { ptr, i64 } @_ZNK4LIEF5MachO13LinkerOptHint7contentEv(ptr noundef nonnull align 8 dereferenceable(80) %0) #0 comdat align 2 {
  %2 = alloca %"class.tcb::span", align 8
  %3 = alloca ptr, align 8
  store ptr %0, ptr %3, align 8
  %4 = load ptr, ptr %3, align 8
  %5 = getelementptr inbounds %"class.LIEF::MachO::LinkerOptHint", ptr %4, i32 0, i32 3
  call void @_ZN3tcb4spanIKhLm18446744073709551615EEC2IhLm18446744073709551615ETnNSt9enable_ifIXaaooooeqLm18446744073709551615EL_ZNS_14dynamic_extentEEeqT0_L_ZNS_14dynamic_extentEEeqLm18446744073709551615ET0_sr3std14is_convertibleIPA_T_PA_S1_EE5valueEiE4typeELi0EEERKNS0_IS5_XT0_EEE(ptr noundef nonnull align 8 dereferenceable(16) %2, ptr noundef nonnull align 8 dereferenceable(16) %5) #8
  %6 = getelementptr inbounds %"class.tcb::span", ptr %2, i32 0, i32 0
  %7 = load { ptr, i64 }, ptr %6, align 8
  ret { ptr, i64 } %7
}

; Function Attrs: mustprogress nounwind uwtable
define linkonce_odr hidden noundef i32 @_ZNK4LIEF5MachO13LinkerOptHint9data_sizeEv(ptr noundef nonnull align 8 dereferenceable(80) %0) #0 comdat align 2 {
  %2 = alloca ptr, align 8
  store ptr %0, ptr %2, align 8
  %3 = load ptr, ptr %2, align 8
  %4 = getelementptr inbounds %"class.LIEF::MachO::LinkerOptHint", ptr %3, i32 0, i32 2
  %5 = load i32, ptr %4, align 4
  ret i32 %5
}

; Function Attrs: mustprogress nounwind uwtable
define linkonce_odr hidden noundef i32 @_ZNK4LIEF5MachO13LinkerOptHint11data_offsetEv(ptr noundef nonnull align 8 dereferenceable(80) %0) #0 comdat align 2 {
  %2 = alloca ptr, align 8
  store ptr %0, ptr %2, align 8
  %3 = load ptr, ptr %2, align 8
  %4 = getelementptr inbounds %"class.LIEF::MachO::LinkerOptHint", ptr %3, i32 0, i32 1
  %5 = load i32, ptr %4, align 8
  ret i32 %5
}

; Function Attrs: mustprogress uwtable
define void @_ZN4LIEF5MachO4Hash5visitERKNS0_13LinkerOptHintE(ptr noundef nonnull align 8 dereferenceable(64) %0, ptr noundef nonnull align 8 dereferenceable(80) %1) unnamed_addr #3 align 2 {
  %3 = alloca ptr, align 8
  %4 = alloca ptr, align 8
  %5 = alloca %"class.tcb::span", align 8
  store ptr %0, ptr %3, align 8
  store ptr %1, ptr %4, align 8
  %6 = load ptr, ptr %3, align 8
  %7 = load ptr, ptr %4, align 8
  %8 = call noundef i32 @_ZNK4LIEF5MachO13LinkerOptHint11data_offsetEv(ptr noundef nonnull align 8 dereferenceable(80) %7)
  %9 = zext i32 %8 to i64
  %10 = load ptr, ptr %6, align 8
  %11 = getelementptr inbounds ptr, ptr %10, i64 166
  %12 = load ptr, ptr %11, align 8
  %13 = call noundef nonnull align 8 dereferenceable(64) ptr %12(ptr noundef nonnull align 8 dereferenceable(64) %6, i64 noundef %9)
  %14 = load ptr, ptr %4, align 8
  %15 = call noundef i32 @_ZNK4LIEF5MachO13LinkerOptHint9data_sizeEv(ptr noundef nonnull align 8 dereferenceable(80) %14)
  %16 = zext i32 %15 to i64
  %17 = load ptr, ptr %6, align 8
  %18 = getelementptr inbounds ptr, ptr %17, i64 166
  %19 = load ptr, ptr %18, align 8
  %20 = call noundef nonnull align 8 dereferenceable(64) ptr %19(ptr noundef nonnull align 8 dereferenceable(64) %6, i64 noundef %16)
  %21 = load ptr, ptr %4, align 8
  %22 = call { ptr, i64 } @_ZNK4LIEF5MachO13LinkerOptHint7contentEv(ptr noundef nonnull align 8 dereferenceable(80) %21)
  %23 = getelementptr inbounds %"class.tcb::span", ptr %5, i32 0, i32 0
  %24 = getelementptr inbounds { ptr, i64 }, ptr %23, i32 0, i32 0
  %25 = extractvalue { ptr, i64 } %22, 0
  store ptr %25, ptr %24, align 8
  %26 = getelementptr inbounds { ptr, i64 }, ptr %23, i32 0, i32 1
  %27 = extractvalue { ptr, i64 } %22, 1
  store i64 %27, ptr %26, align 8
  %28 = getelementptr inbounds { ptr, i64 }, ptr %5, i32 0, i32 0
  %29 = load ptr, ptr %28, align 8
  %30 = getelementptr inbounds { ptr, i64 }, ptr %5, i32 0, i32 1
  %31 = load i64, ptr %30, align 8
  %32 = load ptr, ptr %6, align 8
  %33 = getelementptr inbounds ptr, ptr %32, i64 170
  %34 = load ptr, ptr %33, align 8
  %35 = call noundef nonnull align 8 dereferenceable(64) ptr %34(ptr noundef nonnull align 8 dereferenceable(64) %6, ptr %29, i64 %31)
  ret void
}